(dp1
S'output'
p2
S'<type \'exceptions.SyntaxError\'> invalid table/column name "state" is a "ALL" reserved SQL/NOSQL keyword'
p3
sS'layer'
p4
S'/afs/cats.ucsc.edu/users/r/sshimook/Desktop/web2py/applications/SleepLog/models/db.py'
p5
sS'code'
p6
S"# -*- coding: utf-8 -*-\n\n#########################################################################\n## This scaffolding model makes your app work on Google App Engine too\n## File is released under public domain and you can use without limitations\n#########################################################################\n\n## if SSL/HTTPS is properly configured and you want all HTTP requests to\n## be redirected to HTTPS, uncomment the line below:\n# request.requires_https()\n\nif not request.env.web2py_runtime_gae:\n    ## if NOT running on Google App Engine use SQLite or other DB\n    db = DAL('sqlite://storage.sqlite',pool_size=1,check_reserved=['all'])\nelse:\n    ## connect to Google BigTable (optional 'google:datastore://namespace')\n    db = DAL('google:datastore+ndb')\n    ## store sessions and tickets there\n    session.connect(request, response, db=db)\n    ## or store session in Memcache, Redis, etc.\n    ## from gluon.contrib.memdb import MEMDB\n    ## from google.appengine.api.memcache import Client\n    ## session.connect(request, response, db = MEMDB(Client()))\n\n## by default give a view/generic.extension to all actions from localhost\n## none otherwise. a pattern can be 'controller/function.extension'\nresponse.generic_patterns = ['*'] if request.is_local else []\n\n## (optional) optimize handling of static files\n# response.optimize_css = 'concat,minify,inline'\n# response.optimize_js = 'concat,minify,inline'\n## (optional) static assets folder versioning\n# response.static_version = '0.0.0'\n#########################################################################\n## Here is sample code if you need for\n## - email capabilities\n## - authentication (registration, login, logout, ... )\n## - authorization (role based authorization)\n## - services (xml, csv, json, xmlrpc, jsonrpc, amf, rss)\n## - old style crud actions\n## (more options discussed in gluon/tools.py)\n#########################################################################\n\nfrom gluon.tools import Auth, Service, PluginManager\n\nauth = Auth(db)\nservice = Service()\nplugins = PluginManager()\n\n##########################################\n#Auth Database extra Fields for user profiles   ~E\n\nauth.settings.extra_fields['auth_user']= [\n  Field('address'),\n  Field('city'),\n  Field('zip'),\n  Field('state'),  ##check for built in state locater function\n  Field('image'),\n  Field('about'),\n  Field('phone')]\n## before auth.define_tables(username=True)\n\n\n\n\n## create all tables needed by auth if not custom tables\nauth.define_tables(username=False, signature=False)\n\n\n\n\n\n## configure email\nmail = auth.settings.mailer\nmail.settings.server = 'logging' if request.is_local else 'smtp.gmail.com:587'\nmail.settings.sender = 'you@gmail.com'\nmail.settings.login = 'username:password'\n\n## configure auth policy\nauth.settings.registration_requires_verification = False\nauth.settings.registration_requires_approval = False\nauth.settings.reset_password_requires_verification = True\n\n## if you need to use OpenID, Facebook, MySpace, Twitter, Linkedin, etc.\n## register with janrain.com, write your domain:api_key in private/janrain.key\nfrom gluon.contrib.login_methods.janrain_account import use_janrain\nuse_janrain(auth, filename='private/janrain.key')\n\n#########################################################################\n## Define your tables below (or better in another model file) for example\n##\n## >>> db.define_table('mytable',Field('myfield','string'))\n##\n## Fields can be 'string','text','password','integer','double','boolean'\n##       'date','time','datetime','blob','upload', 'reference TABLENAME'\n## There is an implicit 'id integer autoincrement' field\n## Consult manual for more options, validators, etc.\n##\n## More API examples for controllers:\n##\n## >>> db.mytable.insert(myfield='value')\n## >>> rows=db(db.mytable.myfield=='value').select(db.mytable.ALL)\n## >>> for row in rows: print row.id, row.myfield\n#########################################################################\n\n## after defining tables, uncomment below to enable auditing\n# auth.enable_record_versioning(db)\n\n"
p7
sS'snapshot'
p8
(dp9
S'exception'
p10
(dp11
S'__getslice__'
p12
S"<method-wrapper '__getslice__' of exceptions.SyntaxError object>"
p13
sS'text'
p14
S'None'
p15
sS'__str__'
p16
S"<method-wrapper '__str__' of exceptions.SyntaxError object>"
p17
sS'__reduce__'
p18
S'<built-in method __reduce__ of exceptions.SyntaxError object>'
p19
sS'__dict__'
p20
S'{}'
p21
sS'__sizeof__'
p22
S'<built-in method __sizeof__ of exceptions.SyntaxError object>'
p23
sS'__init__'
p24
S"<method-wrapper '__init__' of exceptions.SyntaxError object>"
p25
sS'__setattr__'
p26
S"<method-wrapper '__setattr__' of exceptions.SyntaxError object>"
p27
sS'__reduce_ex__'
p28
S'<built-in method __reduce_ex__ of exceptions.SyntaxError object>'
p29
sS'__new__'
p30
S'<built-in method __new__ of type object>'
p31
sS'__format__'
p32
S'<built-in method __format__ of exceptions.SyntaxError object>'
p33
sS'__class__'
p34
S"<type 'exceptions.SyntaxError'>"
p35
sS'filename'
p36
S'None'
p37
sS'lineno'
p38
S'None'
p39
sS'msg'
p40
S'\'invalid table/column name "state" is a "ALL" reserved SQL/NOSQL keyword\''
p41
sS'__doc__'
p42
S"'Invalid syntax.'"
p43
sS'__getitem__'
p44
S"<method-wrapper '__getitem__' of exceptions.SyntaxError object>"
p45
sS'__setstate__'
p46
S'<built-in method __setstate__ of exceptions.SyntaxError object>'
p47
sS'__getattribute__'
p48
S"<method-wrapper '__getattribute__' of exceptions.SyntaxError object>"
p49
sS'print_file_and_line'
p50
S'None'
p51
sS'args'
p52
S'(\'invalid table/column name "state" is a "ALL" reserved SQL/NOSQL keyword\',)'
p53
sS'__subclasshook__'
p54
S'<built-in method __subclasshook__ of type object>'
p55
sS'offset'
p56
S'None'
p57
sS'__unicode__'
p58
S'<built-in method __unicode__ of exceptions.SyntaxError object>'
p59
sS'__delattr__'
p60
S"<method-wrapper '__delattr__' of exceptions.SyntaxError object>"
p61
sS'__repr__'
p62
S"<method-wrapper '__repr__' of exceptions.SyntaxError object>"
p63
sS'__hash__'
p64
S"<method-wrapper '__hash__' of exceptions.SyntaxError object>"
p65
ssS'evalue'
p66
S'invalid table/column name "state" is a "ALL" reserved SQL/NOSQL keyword'
p67
sS'request'
p68
cgluon.html
XML_unpickle
p69
(S's\xe8]\x00\x00<div><table><tr><td style="font-weight:bold;vertical-align:top;">ajax</td><td style="vertical-align:top;">:</td><td><div>False</div></td></tr><tr><td style="font-weight:bold;vertical-align:top;">application</td><td style="vertical-align:top;">:</td><td><div>SleepLog</div></td></tr><tr><td style="font-weight:bold;vertical-align:top;">args</td><td style="vertical-align:top;">:</td><td><div><table><tr><td><div>register</div></td></tr></table></div></td></tr><tr><td style="font-weight:bold;vertical-align:top;">cid</td><td style="vertical-align:top;">:</td><td><div>None</div></td></tr><tr><td style="font-weight:bold;vertical-align:top;">client</td><td style="vertical-align:top;">:</td><td><div>127.0.0.1</div></td></tr><tr><td style="font-weight:bold;vertical-align:top;">controller</td><td style="vertical-align:top;">:</td><td><div>default</div></td></tr><tr><td style="font-weight:bold;vertical-align:top;">cookies</td><td style="vertical-align:top;">:</td><td><div><table><tr><td style="font-weight:bold;vertical-align:top;">session_id_admin</td><td style="vertical-align:top;">:</td><td><div>127.0.0.1-ac7bbaf4-7e38-49bf-ba22-186cf37d8f6f<table><tr><td style="font-weight:bold;vertical-align:top;">comment</td><td style="vertical-align:top;">:</td><td><div></div></td></tr><tr><td style="font-weight:bold;vertical-align:top;">domain</td><td style="vertical-align:top;">:</td><td><div></div></td></tr><tr><td style="font-weight:bold;vertical-align:top;">expires</td><td style="vertical-align:top;">:</td><td><div></div></td></tr><tr><td style="font-weight:bold;vertical-align:top;">httponly</td><td style="vertical-align:top;">:</td><td><div></div></td></tr><tr><td style="font-weight:bold;vertical-align:top;">max-age</td><td style="vertical-align:top;">:</td><td><div></div></td></tr><tr><td style="font-weight:bold;vertical-align:top;">path</td><td style="vertical-align:top;">:</td><td><div></div></td></tr><tr><td style="font-weight:bold;vertical-align:top;">secure</td><td style="vertical-align:top;">:</td><td><div></div></td></tr><tr><td style="font-weight:bold;vertical-align:top;">version</td><td style="vertical-align:top;">:</td><td><div></div></td></tr></table></div></td></tr><tr><td style="font-weight:bold;vertical-align:top;">session_id_sleeplog</td><td style="vertical-align:top;">:</td><td><div>127.0.0.1-1f8a9434-d4bf-4548-95b4-17006fe5ea67<table><tr><td style="font-weight:bold;vertical-align:top;">comment</td><td style="vertical-align:top;">:</td><td><div></div></td></tr><tr><td style="font-weight:bold;vertical-align:top;">domain</td><td style="vertical-align:top;">:</td><td><div></div></td></tr><tr><td style="font-weight:bold;vertical-align:top;">expires</td><td style="vertical-align:top;">:</td><td><div></div></td></tr><tr><td style="font-weight:bold;vertical-align:top;">httponly</td><td style="vertical-align:top;">:</td><td><div></div></td></tr><tr><td style="font-weight:bold;vertical-align:top;">max-age</td><td style="vertical-align:top;">:</td><td><div></div></td></tr><tr><td style="font-weight:bold;vertical-align:top;">path</td><td style="vertical-align:top;">:</td><td><div></div></td></tr><tr><td style="font-weight:bold;vertical-align:top;">secure</td><td style="vertical-align:top;">:</td><td><div></div></td></tr><tr><td style="font-weight:bold;vertical-align:top;">version</td><td style="vertical-align:top;">:</td><td><div></div></td></tr></table></div></td></tr><tr><td style="font-weight:bold;vertical-align:top;">session_id_welcome</td><td style="vertical-align:top;">:</td><td><div>127.0.0.1-aa831194-ff92-463a-bfa4-2c8376f45085<table><tr><td style="font-weight:bold;vertical-align:top;">comment</td><td style="vertical-align:top;">:</td><td><div></div></td></tr><tr><td style="font-weight:bold;vertical-align:top;">domain</td><td style="vertical-align:top;">:</td><td><div></div></td></tr><tr><td style="font-weight:bold;vertical-align:top;">expires</td><td style="vertical-align:top;">:</td><td><div></div></td></tr><tr><td style="font-weight:bold;vertical-align:top;">httponly</td><td style="vertical-align:top;">:</td><td><div></div></td></tr><tr><td style="font-weight:bold;vertical-align:top;">max-age</td><td style="vertical-align:top;">:</td><td><div></div></td></tr><tr><td style="font-weight:bold;vertical-align:top;">path</td><td style="vertical-align:top;">:</td><td><div></div></td></tr><tr><td style="font-weight:bold;vertical-align:top;">secure</td><td style="vertical-align:top;">:</td><td><div></div></td></tr><tr><td style="font-weight:bold;vertical-align:top;">version</td><td style="vertical-align:top;">:</td><td><div></div></td></tr></table></div></td></tr></table></div></td></tr><tr><td style="font-weight:bold;vertical-align:top;">env</td><td style="vertical-align:top;">:</td><td><div><table><tr><td style="font-weight:bold;vertical-align:top;">HTTP_ACCEPT</td><td style="vertical-align:top;">:</td><td><div>text/html,application/xhtml+xml,application/xml;q=0.9,*/*;q=0.8</div></td></tr><tr><td style="font-weight:bold;vertical-align:top;">HTTP_ACCEPT_ENCODING</td><td style="vertical-align:top;">:</td><td><div>gzip, deflate</div></td></tr><tr><td style="font-weight:bold;vertical-align:top;">HTTP_ACCEPT_LANGUAGE</td><td style="vertical-align:top;">:</td><td><div>en-US,en;q=0.5</div></td></tr><tr><td style="font-weight:bold;vertical-align:top;">HTTP_CONNECTION</td><td style="vertical-align:top;">:</td><td><div>keep-alive</div></td></tr><tr><td style="font-weight:bold;vertical-align:top;">HTTP_COOKIE</td><td style="vertical-align:top;">:</td><td><div>session_id_welcome=127.0.0.1-aa831194-ff92-463a-bfa4-2c8376f45085; session_id_admin=127.0.0.1-ac7bbaf4-7e38-49bf-ba22-186cf37d8f6f; session_id_sleeplog=127.0.0.1-1f8a9434-d4bf-4548-95b4-17006fe5ea67</div></td></tr><tr><td style="font-weight:bold;vertical-align:top;">HTTP_HOST</td><td style="vertical-align:top;">:</td><td><div>127.0.0.1:8000</div></td></tr><tr><td style="font-weight:bold;vertical-align:top;">HTTP_REFERER</td><td style="vertical-align:top;">:</td><td><div>http://127.0.0.1:8000/SleepLog/default/index</div></td></tr><tr><td style="font-weight:bold;vertical-align:top;">HTTP_USER_AGENT</td><td style="vertical-align:top;">:</td><td><div>Mozilla/5.0 (X11; Linux x86_64; rv:31.0) Gecko/20100101 Firefox/31.0</div></td></tr><tr><td style="font-weight:bold;vertical-align:top;">PATH_INFO</td><td style="vertical-align:top;">:</td><td><div>/SleepLog/default/user/register</div></td></tr><tr><td style="font-weight:bold;vertical-align:top;">QUERY_STRING</td><td style="vertical-align:top;">:</td><td><div>_next=/SleepLog/default/index</div></td></tr><tr><td style="font-weight:bold;vertical-align:top;">REMOTE_ADDR</td><td style="vertical-align:top;">:</td><td><div>127.0.0.1</div></td></tr><tr><td style="font-weight:bold;vertical-align:top;">REMOTE_PORT</td><td style="vertical-align:top;">:</td><td><div>52893</div></td></tr><tr><td style="font-weight:bold;vertical-align:top;">REQUEST_METHOD</td><td style="vertical-align:top;">:</td><td><div>GET</div></td></tr><tr><td style="font-weight:bold;vertical-align:top;">SCRIPT_NAME</td><td style="vertical-align:top;">:</td><td><div></div></td></tr><tr><td style="font-weight:bold;vertical-align:top;">SERVER_NAME</td><td style="vertical-align:top;">:</td><td><div>be-linux10.lt.ucsc.edu</div></td></tr><tr><td style="font-weight:bold;vertical-align:top;">SERVER_PORT</td><td style="vertical-align:top;">:</td><td><div>8000</div></td></tr><tr><td style="font-weight:bold;vertical-align:top;">SERVER_PROTOCOL</td><td style="vertical-align:top;">:</td><td><div>HTTP/1.1</div></td></tr><tr><td style="font-weight:bold;vertical-align:top;">SERVER_SOFTWARE</td><td style="vertical-align:top;">:</td><td><div>Rocket 1.2.6</div></td></tr><tr><td style="font-weight:bold;vertical-align:top;">app_folders</td><td style="vertical-align:top;">:</td><td><div>set([&#x27;/afs/cats.ucsc.edu/users/r/sshimook/Desktop/web2py/applications/welcome/&#x27;, &#x27;/afs/cats.ucsc.edu/users/r/sshimook/Desktop/web2py/applications/admin/&#x27;, &#x27;/afs/cats.ucsc.edu/users/r/sshimook/Desktop/web2py/applications/SleepLog/&#x27;, &#x27;/afs/cats.ucsc.edu/users/r/sshimook/Desktop/web2py/applications/Sleeplog/&#x27;])</div></td></tr><tr><td style="font-weight:bold;vertical-align:top;">applications_parent</td><td style="vertical-align:top;">:</td><td><div>/afs/cats.ucsc.edu/users/r/sshimook/Desktop/web2py</div></td></tr><tr><td style="font-weight:bold;vertical-align:top;">cmd_args</td><td style="vertical-align:top;">:</td><td><div><table></table></div></td></tr><tr><td style="font-weight:bold;vertical-align:top;">cmd_options</td><td style="vertical-align:top;">:</td><td><div>&lt;Values at 0x2fe27e8: {&#x27;verbose&#x27;: False, &#x27;ip&#x27;: &#x27;127.0.0.1&#x27;, &#x27;debuglevel&#x27;: 30, &#x27;with_scheduler&#x27;: False, &#x27;ips&#x27;: [&#x27;128.114.107.10&#x27;], &#x27;shutdown_timeout&#x27;: 5, &#x27;taskbar&#x27;: False, &#x27;with_coverage&#x27;: False, &#x27;scheduler_groups&#x27;: None, &#x27;port&#x27;: 8000, &#x27;maxthreads&#x27;: None, &#x27;softcron&#x27;: False, &#x27;server_name&#x27;: &#x27;be-linux10.lt.ucsc.edu&#x27;, &#x27;bpython&#x27;: False, &#x27;nogui&#x27;: False, &#x27;pid_filename&#x27;: &#x27;httpserver.pid&#x27;, &#x27;extcron&#x27;: False, &#x27;runcron&#x27;: False, &#x27;run_system_tests&#x27;: False, &#x27;test&#x27;: None, &#x27;folder&#x27;: &#x27;/afs/cats.ucsc.edu/users/r/sshimook/Desktop/web2py&#x27;, &#x27;config&#x27;: &#x27;&#x27;, &#x27;minthreads&#x27;: None, &#x27;shell&#x27;: None, &#x27;run&#x27;: &#x27;&#x27;, &#x27;log_filename&#x27;: &#x27;httpserver.log&#x27;, &#x27;profiler_dir&#x27;: None, &#x27;args&#x27;: [&#x27;&#x27;], &#x27;socket_timeout&#x27;: 5, &#x27;ssl_ca_certificate&#x27;: None, &#x27;scheduler&#x27;: None, &#x27;interfaces&#x27;: None, &#x27;ssl_private_key&#x27;: &#x27;&#x27;, &#x27;gae&#x27;: None, &#x27;password&#x27;: &#x27;&lt;ask&gt;&#x27;, &#x27;request_queue_size&#x27;: 5, &#x27;ssl_certificate&#x27;: &#x27;&#x27;, &#x27;cronjob&#x27;: False, &#x27;numthreads&#x27;: None, &#x27;quiet&#x27;: False, &#x27;import_models&#x27;: False, &#x27;timeout&#x27;: 10, &#x27;plain&#x27;: False, &#x27;nobanner&#x27;: False}&gt;</div></td></tr><tr><td style="font-weight:bold;vertical-align:top;">db_sessions</td><td style="vertical-align:top;">:</td><td><div>set([])</div></td></tr><tr><td style="font-weight:bold;vertical-align:top;">debugging</td><td style="vertical-align:top;">:</td><td><div>False</div></td></tr><tr><td style="font-weight:bold;vertical-align:top;">gluon_parent</td><td style="vertical-align:top;">:</td><td><div>/afs/cats.ucsc.edu/users/r/sshimook/Desktop/web2py</div></td></tr><tr><td style="font-weight:bold;vertical-align:top;">http_accept</td><td style="vertical-align:top;">:</td><td><div>text/html,application/xhtml+xml,application/xml;q=0.9,*/*;q=0.8</div></td></tr><tr><td style="font-weight:bold;vertical-align:top;">http_accept_encoding</td><td style="vertical-align:top;">:</td><td><div>gzip, deflate</div></td></tr><tr><td style="font-weight:bold;vertical-align:top;">http_accept_language</td><td style="vertical-align:top;">:</td><td><div>en-US,en;q=0.5</div></td></tr><tr><td style="font-weight:bold;vertical-align:top;">http_connection</td><td style="vertical-align:top;">:</td><td><div>keep-alive</div></td></tr><tr><td style="font-weight:bold;vertical-align:top;">http_cookie</td><td style="vertical-align:top;">:</td><td><div>session_id_welcome=127.0.0.1-aa831194-ff92-463a-bfa4-2c8376f45085; session_id_admin=127.0.0.1-ac7bbaf4-7e38-49bf-ba22-186cf37d8f6f; session_id_sleeplog=127.0.0.1-1f8a9434-d4bf-4548-95b4-17006fe5ea67</div></td></tr><tr><td style="font-weight:bold;vertical-align:top;">http_host</td><td style="vertical-align:top;">:</td><td><div>127.0.0.1:8000</div></td></tr><tr><td style="font-weight:bold;vertical-align:top;">http_referer</td><td style="vertical-align:top;">:</td><td><div>http://127.0.0.1:8000/SleepLog/default/index</div></td></tr><tr><td style="font-weight:bold;vertical-align:top;">http_user_agent</td><td style="vertical-align:top;">:</td><td><div>Mozilla/5.0 (X11; Linux x86_64; rv:31.0) Gecko/20100101 Firefox/31.0</div></td></tr><tr><td style="font-weight:bold;vertical-align:top;">is_jython</td><td style="vertical-align:top;">:</td><td><div>False</div></td></tr><tr><td style="font-weight:bold;vertical-align:top;">is_pypy</td><td style="vertical-align:top;">:</td><td><div>False</div></td></tr><tr><td style="font-weight:bold;vertical-align:top;">is_source</td><td style="vertical-align:top;">:</td><td><div>True</div></td></tr><tr><td style="font-weight:bold;vertical-align:top;">local_hosts</td><td style="vertical-align:top;">:</td><td><div><table><tr><td><div>::1</div></td></tr><tr><td><div>128.114.107.10</div></td></tr><tr><td><div>::ffff:127.0.0.1</div></td></tr><tr><td><div>127.0.0.1</div></td></tr><tr><td><div>be-linux10.lt.ucsc.edu</div></td></tr></table></div></td></tr><tr><td style="font-weight:bold;vertical-align:top;">path_info</td><td style="vertical-align:top;">:</td><td><div>/SleepLog/default/user/register</div></td></tr><tr><td style="font-weight:bold;vertical-align:top;">query_string</td><td style="vertical-align:top;">:</td><td><div>_next=/SleepLog/default/index</div></td></tr><tr><td style="font-weight:bold;vertical-align:top;">remote_addr</td><td style="vertical-align:top;">:</td><td><div>127.0.0.1</div></td></tr><tr><td style="font-weight:bold;vertical-align:top;">remote_port</td><td style="vertical-align:top;">:</td><td><div>52893</div></td></tr><tr><td style="font-weight:bold;vertical-align:top;">request_method</td><td style="vertical-align:top;">:</td><td><div>GET</div></td></tr><tr><td style="font-weight:bold;vertical-align:top;">request_uri</td><td style="vertical-align:top;">:</td><td><div>/SleepLog/default/user/register?_next=/SleepLog/default/index</div></td></tr><tr><td style="font-weight:bold;vertical-align:top;">script_name</td><td style="vertical-align:top;">:</td><td><div></div></td></tr><tr><td style="font-weight:bold;vertical-align:top;">server_name</td><td style="vertical-align:top;">:</td><td><div>be-linux10.lt.ucsc.edu</div></td></tr><tr><td style="font-weight:bold;vertical-align:top;">server_port</td><td style="vertical-align:top;">:</td><td><div>8000</div></td></tr><tr><td style="font-weight:bold;vertical-align:top;">server_protocol</td><td style="vertical-align:top;">:</td><td><div>HTTP/1.1</div></td></tr><tr><td style="font-weight:bold;vertical-align:top;">server_software</td><td style="vertical-align:top;">:</td><td><div>Rocket 1.2.6</div></td></tr><tr><td style="font-weight:bold;vertical-align:top;">web2py_path</td><td style="vertical-align:top;">:</td><td><div>/afs/cats.ucsc.edu/users/r/sshimook/Desktop/web2py</div></td></tr><tr><td style="font-weight:bold;vertical-align:top;">web2py_version</td><td style="vertical-align:top;">:</td><td><div>2.9.12-stable+timestamp.2015.01.17.06.11.03</div></td></tr><tr><td style="font-weight:bold;vertical-align:top;">wsgi.errors</td><td style="vertical-align:top;">:</td><td><div>&lt;open file &#x27;&lt;stderr&gt;&#x27;, mode &#x27;w&#x27; at 0x7f80d16fc1e0&gt;</div></td></tr><tr><td style="font-weight:bold;vertical-align:top;">wsgi.file_wrapper</td><td style="vertical-align:top;">:</td><td><div>&lt;class wsgiref.util.FileWrapper at 0x2f2da70&gt;</div></td></tr><tr><td style="font-weight:bold;vertical-align:top;">wsgi.input</td><td style="vertical-align:top;">:</td><td><div>&lt;socket._fileobject object at 0x7f80780b4e50&gt;</div></td></tr><tr><td style="font-weight:bold;vertical-align:top;">wsgi.multiprocess</td><td style="vertical-align:top;">:</td><td><div>False</div></td></tr><tr><td style="font-weight:bold;vertical-align:top;">wsgi.multithread</td><td style="vertical-align:top;">:</td><td><div>True</div></td></tr><tr><td style="font-weight:bold;vertical-align:top;">wsgi.run_once</td><td style="vertical-align:top;">:</td><td><div>False</div></td></tr><tr><td style="font-weight:bold;vertical-align:top;">wsgi.url_scheme</td><td style="vertical-align:top;">:</td><td><div>http</div></td></tr><tr><td style="font-weight:bold;vertical-align:top;">wsgi.version</td><td style="vertical-align:top;">:</td><td><div><table><tr><td><div>1</div></td></tr><tr><td><div>0</div></td></tr></table></div></td></tr><tr><td style="font-weight:bold;vertical-align:top;">wsgi_errors</td><td style="vertical-align:top;">:</td><td><div>&lt;open file &#x27;&lt;stderr&gt;&#x27;, mode &#x27;w&#x27; at 0x7f80d16fc1e0&gt;</div></td></tr><tr><td style="font-weight:bold;vertical-align:top;">wsgi_file_wrapper</td><td style="vertical-align:top;">:</td><td><div>&lt;class wsgiref.util.FileWrapper at 0x2f2da70&gt;</div></td></tr><tr><td style="font-weight:bold;vertical-align:top;">wsgi_input</td><td style="vertical-align:top;">:</td><td><div>&lt;socket._fileobject object at 0x7f80780b4e50&gt;</div></td></tr><tr><td style="font-weight:bold;vertical-align:top;">wsgi_multiprocess</td><td style="vertical-align:top;">:</td><td><div>False</div></td></tr><tr><td style="font-weight:bold;vertical-align:top;">wsgi_multithread</td><td style="vertical-align:top;">:</td><td><div>True</div></td></tr><tr><td style="font-weight:bold;vertical-align:top;">wsgi_run_once</td><td style="vertical-align:top;">:</td><td><div>False</div></td></tr><tr><td style="font-weight:bold;vertical-align:top;">wsgi_url_scheme</td><td style="vertical-align:top;">:</td><td><div>http</div></td></tr><tr><td style="font-weight:bold;vertical-align:top;">wsgi_version</td><td style="vertical-align:top;">:</td><td><div><table><tr><td><div>1</div></td></tr><tr><td><div>0</div></td></tr></table></div></td></tr></table></div></td></tr><tr><td style="font-weight:bold;vertical-align:top;">extension</td><td style="vertical-align:top;">:</td><td><div>html</div></td></tr><tr><td style="font-weight:bold;vertical-align:top;">folder</td><td style="vertical-align:top;">:</td><td><div>/afs/cats.ucsc.edu/users/r/sshimook/Desktop/web2py/applications/SleepLog/</div></td></tr><tr><td style="font-weight:bold;vertical-align:top;">function</td><td style="vertical-align:top;">:</td><td><div>user</div></td></tr><tr><td style="font-weight:bold;vertical-align:top;">global_settings</td><td style="vertical-align:top;">:</td><td><div><table><tr><td style="font-weight:bold;vertical-align:top;">app_folders</td><td style="vertical-align:top;">:</td><td><div>set([&#x27;/afs/cats.ucsc.edu/users/r/sshimook/Desktop/web2py/applications/welcome/&#x27;, &#x27;/afs/cats.ucsc.edu/users/r/sshimook/Desktop/web2py/applications/admin/&#x27;, &#x27;/afs/cats.ucsc.edu/users/r/sshimook/Desktop/web2py/applications/SleepLog/&#x27;, &#x27;/afs/cats.ucsc.edu/users/r/sshimook/Desktop/web2py/applications/Sleeplog/&#x27;])</div></td></tr><tr><td style="font-weight:bold;vertical-align:top;">applications_parent</td><td style="vertical-align:top;">:</td><td><div>/afs/cats.ucsc.edu/users/r/sshimook/Desktop/web2py</div></td></tr><tr><td style="font-weight:bold;vertical-align:top;">cmd_args</td><td style="vertical-align:top;">:</td><td><div><table></table></div></td></tr><tr><td style="font-weight:bold;vertical-align:top;">cmd_options</td><td style="vertical-align:top;">:</td><td><div>&lt;Values at 0x2fe27e8: {&#x27;verbose&#x27;: False, &#x27;ip&#x27;: &#x27;127.0.0.1&#x27;, &#x27;debuglevel&#x27;: 30, &#x27;with_scheduler&#x27;: False, &#x27;ips&#x27;: [&#x27;128.114.107.10&#x27;], &#x27;shutdown_timeout&#x27;: 5, &#x27;taskbar&#x27;: False, &#x27;with_coverage&#x27;: False, &#x27;scheduler_groups&#x27;: None, &#x27;port&#x27;: 8000, &#x27;maxthreads&#x27;: None, &#x27;softcron&#x27;: False, &#x27;server_name&#x27;: &#x27;be-linux10.lt.ucsc.edu&#x27;, &#x27;bpython&#x27;: False, &#x27;nogui&#x27;: False, &#x27;pid_filename&#x27;: &#x27;httpserver.pid&#x27;, &#x27;extcron&#x27;: False, &#x27;runcron&#x27;: False, &#x27;run_system_tests&#x27;: False, &#x27;test&#x27;: None, &#x27;folder&#x27;: &#x27;/afs/cats.ucsc.edu/users/r/sshimook/Desktop/web2py&#x27;, &#x27;config&#x27;: &#x27;&#x27;, &#x27;minthreads&#x27;: None, &#x27;shell&#x27;: None, &#x27;run&#x27;: &#x27;&#x27;, &#x27;log_filename&#x27;: &#x27;httpserver.log&#x27;, &#x27;profiler_dir&#x27;: None, &#x27;args&#x27;: [&#x27;&#x27;], &#x27;socket_timeout&#x27;: 5, &#x27;ssl_ca_certificate&#x27;: None, &#x27;scheduler&#x27;: None, &#x27;interfaces&#x27;: None, &#x27;ssl_private_key&#x27;: &#x27;&#x27;, &#x27;gae&#x27;: None, &#x27;password&#x27;: &#x27;&lt;ask&gt;&#x27;, &#x27;request_queue_size&#x27;: 5, &#x27;ssl_certificate&#x27;: &#x27;&#x27;, &#x27;cronjob&#x27;: False, &#x27;numthreads&#x27;: None, &#x27;quiet&#x27;: False, &#x27;import_models&#x27;: False, &#x27;timeout&#x27;: 10, &#x27;plain&#x27;: False, &#x27;nobanner&#x27;: False}&gt;</div></td></tr><tr><td style="font-weight:bold;vertical-align:top;">db_sessions</td><td style="vertical-align:top;">:</td><td><div>set([])</div></td></tr><tr><td style="font-weight:bold;vertical-align:top;">debugging</td><td style="vertical-align:top;">:</td><td><div>False</div></td></tr><tr><td style="font-weight:bold;vertical-align:top;">gluon_parent</td><td style="vertical-align:top;">:</td><td><div>/afs/cats.ucsc.edu/users/r/sshimook/Desktop/web2py</div></td></tr><tr><td style="font-weight:bold;vertical-align:top;">is_jython</td><td style="vertical-align:top;">:</td><td><div>False</div></td></tr><tr><td style="font-weight:bold;vertical-align:top;">is_pypy</td><td style="vertical-align:top;">:</td><td><div>False</div></td></tr><tr><td style="font-weight:bold;vertical-align:top;">is_source</td><td style="vertical-align:top;">:</td><td><div>True</div></td></tr><tr><td style="font-weight:bold;vertical-align:top;">local_hosts</td><td style="vertical-align:top;">:</td><td><div><table><tr><td><div>::1</div></td></tr><tr><td><div>128.114.107.10</div></td></tr><tr><td><div>::ffff:127.0.0.1</div></td></tr><tr><td><div>127.0.0.1</div></td></tr><tr><td><div>be-linux10.lt.ucsc.edu</div></td></tr></table></div></td></tr><tr><td style="font-weight:bold;vertical-align:top;">web2py_version</td><td style="vertical-align:top;">:</td><td><div>2.9.12-stable+timestamp.2015.01.17.06.11.03</div></td></tr></table></div></td></tr><tr><td style="font-weight:bold;vertical-align:top;">is_https</td><td style="vertical-align:top;">:</td><td><div>False</div></td></tr><tr><td style="font-weight:bold;vertical-align:top;">is_local</td><td style="vertical-align:top;">:</td><td><div>True</div></td></tr><tr><td style="font-weight:bold;vertical-align:top;">is_restful</td><td style="vertical-align:top;">:</td><td><div>False</div></td></tr><tr><td style="font-weight:bold;vertical-align:top;">is_sheduler</td><td style="vertical-align:top;">:</td><td><div>None</div></td></tr><tr><td style="font-weight:bold;vertical-align:top;">is_shell</td><td style="vertical-align:top;">:</td><td><div>None</div></td></tr><tr><td style="font-weight:bold;vertical-align:top;">now</td><td style="vertical-align:top;">:</td><td><div>datetime.datetime(2015, 2, 17, 17, 26, 29, 376511)</div></td></tr><tr><td style="font-weight:bold;vertical-align:top;">raw_args</td><td style="vertical-align:top;">:</td><td><div>register</div></td></tr><tr><td style="font-weight:bold;vertical-align:top;">raw_extension</td><td style="vertical-align:top;">:</td><td><div>None</div></td></tr><tr><td style="font-weight:bold;vertical-align:top;">url</td><td style="vertical-align:top;">:</td><td><div>/SleepLog/default/user/register</div></td></tr><tr><td style="font-weight:bold;vertical-align:top;">utcnow</td><td style="vertical-align:top;">:</td><td><div>datetime.datetime(2015, 2, 18, 1, 26, 29, 376531)</div></td></tr><tr><td style="font-weight:bold;vertical-align:top;">uuid</td><td style="vertical-align:top;">:</td><td><div>SleepLog/127.0.0.1.2015-02-17.17-26-29.44d2eac6-9037-4cc7-a54f-49a1c5af16b8</div></td></tr><tr><td style="font-weight:bold;vertical-align:top;">wsgi</td><td style="vertical-align:top;">:</td><td><div>&lt;gluon.main.LazyWSGI object at 0x7f8068413dd0&gt;</div></td></tr></table></div>'
tRp70
sS'frames'
p71
(lp72
(dp73
S'file'
p74
S'/afs/cats.ucsc.edu/users/r/sshimook/Desktop/web2py/gluon/restricted.py'
p75
sS'dump'
p76
(dp77
S'environment'
p78
S"{'A': <class 'gluon.html.A'>, 'ANY_OF': <class 'gluon.validators.ANY_OF'>, 'ASSIGNJS': <function ASSIGNJS>, 'Auth': <class 'gluon.tools.Auth'>, 'B': <class 'gluon.html.B'>, 'BEAUTIFY': <class 'gluon.html.BEAUTIFY'>, 'BODY': <class 'gluon.html.BODY'>, 'BR': <class 'gluon.html.BR'>, 'BUTTON': <class 'gluon.html.BUTTON'>, 'CAT': <class 'gluon.html.CAT'>, ...}"
p79
sS'ccode'
p80
S'<code object <module> at 0x7f806841f3f0, file "/...2py/applications/SleepLog/models/db.py", line 12>'
p81
ssS'lnum'
p82
I224
sS'lines'
p83
(dp84
I224
S'        exec ccode in environment'
p85
sI225
S'    except HTTP:'
p86
sI226
S'        raise'
p87
sI227
S'    except RestrictedError:'
p88
sI228
S'        # do not encapsulate (obfuscate) the original RestrictedError'
p89
sI219
S'    try:'
p90
sI220
S'        if isinstance(code, types.CodeType):'
p91
sI221
S'            ccode = code'
p92
sI222
S'        else:'
p93
sI223
S'            ccode = compile2(code, layer)'
p94
ssS'call'
p95
S"(code='# -*- coding: utf-8 -*-\\n\\n#######################...le auditing\\n# auth.enable_record_versioning(db)\\n\\n', environment={'A': <class 'gluon.html.A'>, 'ANY_OF': <class 'gluon.validators.ANY_OF'>, 'ASSIGNJS': <function ASSIGNJS>, 'Auth': <class 'gluon.tools.Auth'>, 'B': <class 'gluon.html.B'>, 'BEAUTIFY': <class 'gluon.html.BEAUTIFY'>, 'BODY': <class 'gluon.html.BODY'>, 'BR': <class 'gluon.html.BR'>, 'BUTTON': <class 'gluon.html.BUTTON'>, 'CAT': <class 'gluon.html.CAT'>, ...}, layer='/afs/cats.ucsc.edu/users/r/sshimook/Desktop/web2py/applications/SleepLog/models/db.py')"
p96
sS'func'
p97
S'restricted'
p98
sa(dp99
g74
S'/afs/cats.ucsc.edu/users/r/sshimook/Desktop/web2py/applications/SleepLog/models/db.py'
p100
sg76
(dp101
S'username'
p102
S'undefined'
p103
sS'auth.define_tables'
p104
S'<bound method Auth.define_tables of <gluon.tools.Auth object>>'
p105
sS'builtinFalse'
p106
S'False'
p107
sS'auth'
p108
S'<gluon.tools.Auth object>'
p109
sS'signature'
p110
g103
ssg82
I67
sg83
(dp111
I64
S''
sI65
S''
sI66
S'## create all tables needed by auth if not custom tables'
p112
sI67
S'auth.define_tables(username=False, signature=False)'
p113
sI68
S''
sI69
S''
sI70
S''
sI71
S''
sI62
S''
sI63
S''
ssg95
S'()'
p114
sg97
S'<module>'
p115
sa(dp116
g74
S'/afs/cats.ucsc.edu/users/r/sshimook/Desktop/web2py/gluon/tools.py'
p117
sg76
(dp118
S'builtinformat'
p119
S'<built-in function format>'
p120
ssg82
I1882
sg83
(dp121
I1877
S'                    *extra_fields,'
p122
sI1878
S'                    **dict('
p123
sI1879
S'                        migrate=self.__get_migrate(settings.table_user_name,'
p124
sI1880
S'                                                   migrate),'
p125
sI1881
S'                        fake_migrate=fake_migrate,'
p126
sI1882
S"                        format='%(first_name)s %(last_name)s (%(id)s)'))"
p127
sI1883
S"        reference_table_user = 'reference %s' % settings.table_user_name"
p128
sI1884
S'        if not settings.table_group_name in db.tables:'
p129
sI1885
S'            extra_fields = settings.extra_fields.get('
p130
sI1886
S'                settings.table_group_name, []) + signature_list'
p131
ssg95
S'(self=<gluon.tools.Auth object>, username=False, signature=False, migrate=True, fake_migrate=False)'
p132
sg97
S'define_tables'
p133
sa(dp134
g74
S'/afs/cats.ucsc.edu/users/r/sshimook/Desktop/web2py/gluon/dal/base.py'
p135
sg76
(dp136
S'fields'
p137
S'(<gluon.dal.objects.Field object>, <gluon.dal.objects.Field object>, <gluon.dal.objects.Field object>, <gluon.dal.objects.Field object>, <gluon.dal.objects.Field object>, <gluon.dal.objects.Field object>, <gluon.dal.objects.Field object>, <gluon.dal.objects.Field object>, <gluon.dal.objects.Field object>, <gluon.dal.objects.Field object>, <gluon.dal.objects.Field object>, <gluon.dal.objects.Field object>, <gluon.dal.objects.Field object>, <gluon.dal.objects.Field object>)'
p138
sS'self'
p139
S'<DAL uri="sqlite://storage.sqlite">'
p140
sS'args'
p141
S"{'fake_migrate': False, 'format': '%(first_name)s %(last_name)s (%(id)s)', 'migrate': True}"
p142
sS'tablename'
p143
S"'auth_user'"
p144
sS'table'
p145
g103
sS'self.lazy_define_table'
p146
S'<bound method DAL.lazy_define_table of <DAL uri="sqlite://storage.sqlite">>'
p147
ssg82
I787
sg83
(dp148
I782
S'                    % (tablename,invalid_args))'
p149
sI783
S'        if self._lazy_tables and not tablename in self._LAZY_TABLES:'
p150
sI784
S'            self._LAZY_TABLES[tablename] = (tablename,fields,args)'
p151
sI785
S'            table = None'
p152
sI786
S'        else:'
p153
sI787
S'            table = self.lazy_define_table(tablename,*fields,**args)'
p154
sI788
S'        if not tablename in self.tables:'
p155
sI789
S'            self.tables.append(tablename)'
p156
sI790
S'        return table'
p157
sI791
S''
ssg95
S'(self=<DAL uri="sqlite://storage.sqlite">, tablename=\'auth_user\', *fields=(<gluon.dal.objects.Field object>, <gluon.dal.objects.Field object>, <gluon.dal.objects.Field object>, <gluon.dal.objects.Field object>, <gluon.dal.objects.Field object>, <gluon.dal.objects.Field object>, <gluon.dal.objects.Field object>, <gluon.dal.objects.Field object>, <gluon.dal.objects.Field object>, <gluon.dal.objects.Field object>, <gluon.dal.objects.Field object>, <gluon.dal.objects.Field object>, <gluon.dal.objects.Field object>, <gluon.dal.objects.Field object>), **args={\'fake_migrate\': False, \'format\': \'%(first_name)s %(last_name)s (%(id)s)\', \'migrate\': True})'
p158
sg97
S'define_table'
p159
sa(dp160
g74
S'/afs/cats.ucsc.edu/users/r/sshimook/Desktop/web2py/gluon/dal/base.py'
p161
sg76
(dp162
S'fields'
p163
S'(<gluon.dal.objects.Field object>, <gluon.dal.objects.Field object>, <gluon.dal.objects.Field object>, <gluon.dal.objects.Field object>, <gluon.dal.objects.Field object>, <gluon.dal.objects.Field object>, <gluon.dal.objects.Field object>, <gluon.dal.objects.Field object>, <gluon.dal.objects.Field object>, <gluon.dal.objects.Field object>, <gluon.dal.objects.Field object>, <gluon.dal.objects.Field object>, <gluon.dal.objects.Field object>, <gluon.dal.objects.Field object>)'
p164
sS'self'
p165
S'<DAL uri="sqlite://storage.sqlite">'
p166
sS'args'
p167
S"{'fake_migrate': False, 'format': '%(first_name)s %(last_name)s (%(id)s)', 'migrate': True}"
p168
sS'tablename'
p169
S"'auth_user'"
p170
sS'table_class'
p171
S"<class 'gluon.dal.objects.Table'>"
p172
sS'table'
p173
g103
ssg82
I804
sg83
(dp174
I800
S'        if common_fields:'
p175
sI801
S'            fields = list(fields) + list(common_fields)'
p176
sI802
S''
sI803
S"        table_class = args_get('table_class',Table)"
p177
sI804
S'        table = table_class(self, tablename, *fields, **args)'
p178
sI805
S'        table._actual = True'
p179
sI806
S'        self[tablename] = table'
p180
sI807
S'        # must follow above line to handle self references'
p181
sI808
S'        table._create_references()'
p182
sI799
S'        common_fields = self._common_fields'
p183
ssg95
S'(self=<DAL uri="sqlite://storage.sqlite">, tablename=\'auth_user\', *fields=(<gluon.dal.objects.Field object>, <gluon.dal.objects.Field object>, <gluon.dal.objects.Field object>, <gluon.dal.objects.Field object>, <gluon.dal.objects.Field object>, <gluon.dal.objects.Field object>, <gluon.dal.objects.Field object>, <gluon.dal.objects.Field object>, <gluon.dal.objects.Field object>, <gluon.dal.objects.Field object>, <gluon.dal.objects.Field object>, <gluon.dal.objects.Field object>, <gluon.dal.objects.Field object>, <gluon.dal.objects.Field object>), **args={\'fake_migrate\': False, \'format\': \'%(first_name)s %(last_name)s (%(id)s)\', \'migrate\': True})'
p184
sg97
S'lazy_define_table'
p185
sa(dp186
g74
S'/afs/cats.ucsc.edu/users/r/sshimook/Desktop/web2py/gluon/dal/objects.py'
p187
sg76
(dp188
S'check_reserved'
p189
S'<bound method DAL.check_reserved_keyword of <DAL uri="sqlite://storage.sqlite">>'
p190
sS'field_name'
p191
S"'state'"
p192
ssg82
I356
sg83
(dp193
I352
S'                if field_name in reserved:'
p194
sI353
S'                    raise SyntaxError("field name %s not allowed" % field_name)'
p195
sI354
S'        for field in fields:'
p196
sI355
S'            field_name = field.name'
p197
sI356
S'            check_reserved(field_name)'
p198
sI357
S'            if db and db._ignore_field_case:'
p199
sI358
S'                fname_item = field_name.lower()'
p200
sI359
S'            else:'
p201
sI360
S'                fname_item = field_name'
p202
sI351
S'            def check_reserved(field_name):'
p203
ssg95
S'(self=<Table auth_user (id,first_name,last_name,email,...t_password_key,registration_id,address,city,zip)>, db=<DAL uri="sqlite://storage.sqlite">, tablename=\'auth_user\', *fields=[<gluon.dal.objects.Field object>, <gluon.dal.objects.Field object>, <gluon.dal.objects.Field object>, <gluon.dal.objects.Field object>, <gluon.dal.objects.Field object>, <gluon.dal.objects.Field object>, <gluon.dal.objects.Field object>, <gluon.dal.objects.Field object>, <gluon.dal.objects.Field object>, <gluon.dal.objects.Field object>, <gluon.dal.objects.Field object>, <gluon.dal.objects.Field object>, <gluon.dal.objects.Field object>, <gluon.dal.objects.Field object>, <gluon.dal.objects.Field object>], **args={\'fake_migrate\': False, \'format\': \'%(first_name)s %(last_name)s (%(id)s)\', \'migrate\': True})'
p204
sg97
g24
sa(dp205
g74
S'/afs/cats.ucsc.edu/users/r/sshimook/Desktop/web2py/gluon/dal/base.py'
p206
sg76
(dp207
S'backend.upper'
p208
S'<built-in method upper of str object>'
p209
sS'name'
p210
S"'state'"
p211
sS'backend'
p212
S"'all'"
p213
ssg82
I491
sg83
(dp214
I486
S'        Uses self.check_reserve which is a list of operators to use.'
p215
sI487
S'        """'
p216
sI488
S'        for backend in self.check_reserved:'
p217
sI489
S'            if name.upper() in self.RSK[backend]:'
p218
sI490
S'                raise SyntaxError('
p219
sI491
S'                    \'invalid table/column name "%s" is a "%s" reserved SQL/NOSQL keyword\' % (name, backend.upper()))'
p220
sI492
S''
sI493
S'    def parse_as_rest(self,patterns,args,vars,queries=None,nested_select=True):'
p221
sI494
S'        """'
p222
sI495
S'        Example:'
p223
ssg95
S'(self=<DAL uri="sqlite://storage.sqlite">, name=\'state\')'
p224
sg97
S'check_reserved_keyword'
p225
sasS'pyver'
p226
S'Python 2.6.6: /usr/bin/python (prefix: /usr)'
p227
sS'session'
p228
g69
(S's\x1a\x00\x00\x00<div><table></table></div>'
tRp229
sS'etype'
p230
S"<type 'exceptions.SyntaxError'>"
p231
sS'date'
p232
S'Tue Feb 17 17:26:29 2015'
p233
sS'response'
p234
g69
(S's\xa4\x17\x00\x00<div><table><tr><td style="font-weight:bold;vertical-align:top;">body</td><td style="vertical-align:top;">:</td><td><div>&lt;cStringIO.StringO object at 0x7f8068408768&gt;</div></td></tr><tr><td style="font-weight:bold;vertical-align:top;">cookies</td><td style="vertical-align:top;">:</td><td><div><table><tr><td style="font-weight:bold;vertical-align:top;">session_id_sleeplog</td><td style="vertical-align:top;">:</td><td><div>127.0.0.1-95152241-afdf-4797-ace8-f58fd2aa5767<table><tr><td style="font-weight:bold;vertical-align:top;">comment</td><td style="vertical-align:top;">:</td><td><div></div></td></tr><tr><td style="font-weight:bold;vertical-align:top;">domain</td><td style="vertical-align:top;">:</td><td><div></div></td></tr><tr><td style="font-weight:bold;vertical-align:top;">expires</td><td style="vertical-align:top;">:</td><td><div></div></td></tr><tr><td style="font-weight:bold;vertical-align:top;">httponly</td><td style="vertical-align:top;">:</td><td><div></div></td></tr><tr><td style="font-weight:bold;vertical-align:top;">max-age</td><td style="vertical-align:top;">:</td><td><div></div></td></tr><tr><td style="font-weight:bold;vertical-align:top;">path</td><td style="vertical-align:top;">:</td><td><div>/</div></td></tr><tr><td style="font-weight:bold;vertical-align:top;">secure</td><td style="vertical-align:top;">:</td><td><div></div></td></tr><tr><td style="font-weight:bold;vertical-align:top;">version</td><td style="vertical-align:top;">:</td><td><div></div></td></tr></table></div></td></tr></table></div></td></tr><tr><td style="font-weight:bold;vertical-align:top;">delimiters</td><td style="vertical-align:top;">:</td><td><div><table><tr><td><div>{{</div></td></tr><tr><td><div>}}</div></td></tr></table></div></td></tr><tr><td style="font-weight:bold;vertical-align:top;">files</td><td style="vertical-align:top;">:</td><td><div><table></table></div></td></tr><tr><td style="font-weight:bold;vertical-align:top;">flash</td><td style="vertical-align:top;">:</td><td><div></div></td></tr><tr><td style="font-weight:bold;vertical-align:top;">form_label_separator</td><td style="vertical-align:top;">:</td><td><div>: </div></td></tr><tr><td style="font-weight:bold;vertical-align:top;">formstyle</td><td style="vertical-align:top;">:</td><td><div>table3cols</div></td></tr><tr><td style="font-weight:bold;vertical-align:top;">generic_patterns</td><td style="vertical-align:top;">:</td><td><div><table><tr><td><div>*</div></td></tr></table></div></td></tr><tr><td style="font-weight:bold;vertical-align:top;">headers</td><td style="vertical-align:top;">:</td><td><div><table><tr><td style="font-weight:bold;vertical-align:top;">X-Powered-By</td><td style="vertical-align:top;">:</td><td><div>web2py</div></td></tr></table></div></td></tr><tr><td style="font-weight:bold;vertical-align:top;">menu</td><td style="vertical-align:top;">:</td><td><div><table></table></div></td></tr><tr><td style="font-weight:bold;vertical-align:top;">meta</td><td style="vertical-align:top;">:</td><td><div><table></table></div></td></tr><tr><td style="font-weight:bold;vertical-align:top;">models_to_run</td><td style="vertical-align:top;">:</td><td><div><table><tr><td><div>^\\w+\\.py$</div></td></tr><tr><td><div>^default/\\w+\\.py$</div></td></tr><tr><td><div>^default/user/\\w+\\.py$</div></td></tr></table></div></td></tr><tr><td style="font-weight:bold;vertical-align:top;">postprocessing</td><td style="vertical-align:top;">:</td><td><div><table></table></div></td></tr><tr><td style="font-weight:bold;vertical-align:top;">session_client</td><td style="vertical-align:top;">:</td><td><div>127.0.0.1</div></td></tr><tr><td style="font-weight:bold;vertical-align:top;">session_cookie_compression_level</td><td style="vertical-align:top;">:</td><td><div>None</div></td></tr><tr><td style="font-weight:bold;vertical-align:top;">session_cookie_expires</td><td style="vertical-align:top;">:</td><td><div>None</div></td></tr><tr><td style="font-weight:bold;vertical-align:top;">session_cookie_key</td><td style="vertical-align:top;">:</td><td><div>None</div></td></tr><tr><td style="font-weight:bold;vertical-align:top;">session_data_name</td><td style="vertical-align:top;">:</td><td><div>session_data_sleeplog</div></td></tr><tr><td style="font-weight:bold;vertical-align:top;">session_file</td><td style="vertical-align:top;">:</td><td><div>&lt;open file &#x27;/afs/cats.ucsc.edu/users/r/sshimook/Desktop/web2py/applications/SleepLog/sessions/1de/191/127.0.0.1-1f8a9434-d4bf-4548-95b4-17006fe5ea67&#x27;, mode &#x27;rb+&#x27; at 0x7f80744ab930&gt;</div></td></tr><tr><td style="font-weight:bold;vertical-align:top;">session_filename</td><td style="vertical-align:top;">:</td><td><div>/afs/cats.ucsc.edu/users/r/sshimook/Desktop/web2py/applications/SleepLog/sessions/127.0.0.1-95152241-afdf-4797-ace8-f58fd2aa5767</div></td></tr><tr><td style="font-weight:bold;vertical-align:top;">session_hash</td><td style="vertical-align:top;">:</td><td><div>c0762cbf4baf7f9af97c051e7fcb8083</div></td></tr><tr><td style="font-weight:bold;vertical-align:top;">session_id</td><td style="vertical-align:top;">:</td><td><div>127.0.0.1-95152241-afdf-4797-ace8-f58fd2aa5767</div></td></tr><tr><td style="font-weight:bold;vertical-align:top;">session_id_name</td><td style="vertical-align:top;">:</td><td><div>session_id_sleeplog</div></td></tr><tr><td style="font-weight:bold;vertical-align:top;">session_masterapp</td><td style="vertical-align:top;">:</td><td><div>SleepLog</div></td></tr><tr><td style="font-weight:bold;vertical-align:top;">session_new</td><td style="vertical-align:top;">:</td><td><div>True</div></td></tr><tr><td style="font-weight:bold;vertical-align:top;">session_storage_type</td><td style="vertical-align:top;">:</td><td><div>file</div></td></tr><tr><td style="font-weight:bold;vertical-align:top;">status</td><td style="vertical-align:top;">:</td><td><div>200</div></td></tr><tr><td style="font-weight:bold;vertical-align:top;">view</td><td style="vertical-align:top;">:</td><td><div>default/user.html</div></td></tr></table></div>'
tRp235
sS'locals'
p236
(dp237
S'self'
p238
S'<DAL uri="sqlite://storage.sqlite">'
p239
sS'name'
p240
S"'state'"
p241
sS'backend'
p242
S"'all'"
p243
sssS'traceback'
p244
S'Traceback (most recent call last):\n  File "/afs/cats.ucsc.edu/users/r/sshimook/Desktop/web2py/gluon/restricted.py", line 224, in restricted\n    exec ccode in environment\n  File "/afs/cats.ucsc.edu/users/r/sshimook/Desktop/web2py/applications/SleepLog/models/db.py", line 67, in <module>\n    auth.define_tables(username=False, signature=False)\n  File "/afs/cats.ucsc.edu/users/r/sshimook/Desktop/web2py/gluon/tools.py", line 1882, in define_tables\n    format=\'%(first_name)s %(last_name)s (%(id)s)\'))\n  File "/afs/cats.ucsc.edu/users/r/sshimook/Desktop/web2py/gluon/dal/base.py", line 787, in define_table\n    table = self.lazy_define_table(tablename,*fields,**args)\n  File "/afs/cats.ucsc.edu/users/r/sshimook/Desktop/web2py/gluon/dal/base.py", line 804, in lazy_define_table\n    table = table_class(self, tablename, *fields, **args)\n  File "/afs/cats.ucsc.edu/users/r/sshimook/Desktop/web2py/gluon/dal/objects.py", line 356, in __init__\n    check_reserved(field_name)\n  File "/afs/cats.ucsc.edu/users/r/sshimook/Desktop/web2py/gluon/dal/base.py", line 491, in check_reserved_keyword\n    \'invalid table/column name "%s" is a "%s" reserved SQL/NOSQL keyword\' % (name, backend.upper()))\nSyntaxError: invalid table/column name "state" is a "ALL" reserved SQL/NOSQL keyword\n'
p245
s.